target datalayout = "e-m:e-p270:32:32-p271:32:32-p272:64:64-i64:64-i128:128-f80:128-n8:16:32:64-S128"
target triple = "x86_64-pc-linux-gnu"

%struct.lv_color_t = type { i8, i8, i8 }
%struct.lv_draw_triangle_dsc_t = type { %struct.lv_draw_dsc_base_t, i8, %struct.lv_color_t, %struct.lv_grad_dsc_t, [3 x %struct.lv_point_precise_t] }
%struct.lv_draw_dsc_base_t = type { ptr, i32, i32, i32, ptr, i64, ptr }
%struct.lv_grad_dsc_t = type { [2 x %struct.lv_gradient_stop_t], i8, i8 }
%struct.lv_gradient_stop_t = type { %struct.lv_color_t, i8, i8 }
%struct.lv_point_precise_t = type { float, float }

; Function Attrs: inlinehint nounwind uwtable
define internal void @lv_memzero(ptr noundef %0, i64 noundef %1) #1 {
  %3 = alloca ptr, align 8
  %4 = alloca i64, align 8
  store ptr %0, ptr %3, align 8, !tbaa !3
  store i64 %1, ptr %4, align 8, !tbaa !20
  %5 = load ptr, ptr %3, align 8, !tbaa !3
  %6 = load i64, ptr %4, align 8, !tbaa !20
  call void @lv_memset(ptr noundef %5, i8 noundef zeroext 0, i64 noundef %6)
  ret void
}

; Function Attrs: nounwind uwtable
define void @lv_draw_triangle_dsc_init(ptr noundef %0) #0 {
  %2 = alloca ptr, align 8
  %3 = alloca %struct.lv_color_t, align 1
  %4 = alloca %struct.lv_color_t, align 1
  %5 = alloca %struct.lv_color_t, align 1
  store ptr %0, ptr %2, align 8, !tbaa !3
  %6 = load ptr, ptr %2, align 8, !tbaa !3
  call void @lv_memzero(ptr noundef %6, i64 noundef 88)
  %7 = load ptr, ptr %2, align 8, !tbaa !3
  %8 = getelementptr inbounds nuw %struct.lv_draw_triangle_dsc_t, ptr %7, i32 0, i32 2
  call void @llvm.lifetime.start.p0(i64 3, ptr %3) #5
  %9 = call i24 @lv_color_white()
  store i24 %9, ptr %3, align 1
  call void @llvm.memcpy.p0.p0.i64(ptr align 1 %8, ptr align 1 %3, i64 3, i1 false), !tbaa.struct !7
  call void @llvm.lifetime.end.p0(i64 3, ptr %3) #5
  %10 = load ptr, ptr %2, align 8, !tbaa !3
  %11 = getelementptr inbounds nuw %struct.lv_draw_triangle_dsc_t, ptr %10, i32 0, i32 3
  %12 = getelementptr inbounds nuw %struct.lv_grad_dsc_t, ptr %11, i32 0, i32 0
  %13 = getelementptr inbounds [2 x %struct.lv_gradient_stop_t], ptr %12, i64 0, i64 0
  %14 = getelementptr inbounds nuw %struct.lv_gradient_stop_t, ptr %13, i32 0, i32 0
  call void @llvm.lifetime.start.p0(i64 3, ptr %4) #5
  %15 = call i24 @lv_color_white()
  store i24 %15, ptr %4, align 1
  call void @llvm.memcpy.p0.p0.i64(ptr align 4 %14, ptr align 1 %4, i64 3, i1 false), !tbaa.struct !7
  call void @llvm.lifetime.end.p0(i64 3, ptr %4) #5
  %16 = load ptr, ptr %2, align 8, !tbaa !3
  %17 = getelementptr inbounds nuw %struct.lv_draw_triangle_dsc_t, ptr %16, i32 0, i32 3
  %18 = getelementptr inbounds nuw %struct.lv_grad_dsc_t, ptr %17, i32 0, i32 0
  %19 = getelementptr inbounds [2 x %struct.lv_gradient_stop_t], ptr %18, i64 0, i64 1
  %20 = getelementptr inbounds nuw %struct.lv_gradient_stop_t, ptr %19, i32 0, i32 0
  call void @llvm.lifetime.start.p0(i64 3, ptr %5) #5
  %21 = call i24 @lv_color_black()
  store i24 %21, ptr %5, align 1
  call void @llvm.memcpy.p0.p0.i64(ptr align 1 %20, ptr align 1 %5, i64 3, i1 false), !tbaa.struct !7
  call void @llvm.lifetime.end.p0(i64 3, ptr %5) #5
  %22 = load ptr, ptr %2, align 8, !tbaa !3
  %23 = getelementptr inbounds nuw %struct.lv_draw_triangle_dsc_t, ptr %22, i32 0, i32 3
  %24 = getelementptr inbounds nuw %struct.lv_grad_dsc_t, ptr %23, i32 0, i32 0
  %25 = getelementptr inbounds [2 x %struct.lv_gradient_stop_t], ptr %24, i64 0, i64 1
  %26 = getelementptr inbounds nuw %struct.lv_gradient_stop_t, ptr %25, i32 0, i32 2
  store i8 -1, ptr %26, align 1, !tbaa !9
  %27 = load ptr, ptr %2, align 8, !tbaa !3
  %28 = getelementptr inbounds nuw %struct.lv_draw_triangle_dsc_t, ptr %27, i32 0, i32 3
  %29 = getelementptr inbounds nuw %struct.lv_grad_dsc_t, ptr %28, i32 0, i32 1
  store i8 2, ptr %29, align 2, !tbaa !12
  %30 = load ptr, ptr %2, align 8, !tbaa !3
  %31 = getelementptr inbounds nuw %struct.lv_draw_triangle_dsc_t, ptr %30, i32 0, i32 1
  store i8 -1, ptr %31, align 8, !tbaa !18
  %32 = load ptr, ptr %2, align 8, !tbaa !3
  %33 = getelementptr inbounds nuw %struct.lv_draw_triangle_dsc_t, ptr %32, i32 0, i32 0
  %34 = getelementptr inbounds nuw %struct.lv_draw_dsc_base_t, ptr %33, i32 0, i32 5
  store i64 88, ptr %34, align 8, !tbaa !19
  ret void
}