; Function Attrs: nounwind uwtable
define void @lv_draw_triangle_dsc_init(ptr noundef %0) local_unnamed_addr #0 {
  tail call void @lv_memset(ptr noundef %0, i8 noundef zeroext 0, i64 noundef 88) #4
  %2 = getelementptr inbounds nuw i8, ptr %0, i64 49
  %3 = tail call i24 @lv_color_white() #4
  store i24 %3, ptr %2, align 1
  %4 = getelementptr inbounds nuw i8, ptr %0, i64 52
  %5 = tail call i24 @lv_color_white() #4
  store i24 %5, ptr %4, align 4
  %6 = getelementptr inbounds i8, ptr %0, i64 57
  %7 = tail call i24 @lv_color_black() #4
  store i24 %7, ptr %6, align 1
  %8 = getelementptr inbounds i8, ptr %0, i64 61
  store i8 -1, ptr %8, align 1, !tbaa !3
  %9 = getelementptr inbounds nuw i8, ptr %0, i64 62
  store i8 2, ptr %9, align 2, !tbaa !8
  %10 = getelementptr inbounds nuw i8, ptr %0, i64 48
  store i8 -1, ptr %10, align 8, !tbaa !15
  %11 = getelementptr inbounds nuw i8, ptr %0, i64 32
  store i64 88, ptr %11, align 8, !tbaa !16
  ret void
}